target datalayout = "e-m:e-p270:32:32-p271:32:32-p272:64:64-i64:64-i128:128-f80:128-n8:16:32:64-S128"
target triple = "x86_64-pc-linux-gnu"

%struct.png_color_8_struct = type { i8, i8, i8, i8, i8 }
%struct.png_color_16_struct = type { i8, i16, i16, i16, i16 }
%struct.png_colorspace = type { i32, %struct.png_xy, %struct.png_XYZ, i16, i16 }
%struct.png_xy = type { i32, i32, i32, i32, i32, i32, i32, i32 }
%struct.png_XYZ = type { i32, i32, i32, i32, i32, i32, i32, i32, i32 }
%struct.png_info_def = type { i32, i32, i32, i64, ptr, i16, i16, i8, i8, i8, i8, i8, i8, i8, i8, [8 x i8], %struct.png_colorspace, ptr, ptr, i32, i32, i32, ptr, %struct.png_time_struct, %struct.png_color_8_struct, ptr, %struct.png_color_16_struct, %struct.png_color_16_struct, i32, i32, i8, i32, i32, i8, ptr, ptr, i32, i32, ptr, ptr, i8, i8, i32, ptr, i32, ptr, i32, i8, ptr, ptr, ptr }
%struct.png_time_struct = type { i16, i8, i8, i8, i8, i8 }

; Function Attrs: nounwind uwtable
define hidden i32 @png_get_pixel_aspect_ratio_fixed(ptr noalias noundef %0, ptr noalias noundef %1) #0 {
  %3 = alloca i32, align 4
  %4 = alloca ptr, align 8
  %5 = alloca ptr, align 8
  %6 = alloca i32, align 4
  store ptr %0, ptr %4, align 8
  store ptr %1, ptr %5, align 8
  %7 = load ptr, ptr %4, align 8
  %8 = icmp ne ptr %7, null
  br i1 %8, label %9, label %50

9:                                                ; preds = %2
  %10 = load ptr, ptr %5, align 8
  %11 = icmp ne ptr %10, null
  br i1 %11, label %12, label %50

12:                                               ; preds = %9
  %13 = load ptr, ptr %5, align 8
  %14 = getelementptr inbounds %struct.png_info_def, ptr %13, i32 0, i32 2
  %15 = load i32, ptr %14, align 8
  %16 = and i32 %15, 128
  %17 = icmp ne i32 %16, 0
  br i1 %17, label %18, label %50

18:                                               ; preds = %12
  %19 = load ptr, ptr %5, align 8
  %20 = getelementptr inbounds %struct.png_info_def, ptr %19, i32 0, i32 31
  %21 = load i32, ptr %20, align 8
  %22 = icmp ugt i32 %21, 0
  br i1 %22, label %23, label %50

23:                                               ; preds = %18
  %24 = load ptr, ptr %5, align 8
  %25 = getelementptr inbounds %struct.png_info_def, ptr %24, i32 0, i32 32
  %26 = load i32, ptr %25, align 4
  %27 = icmp ugt i32 %26, 0
  br i1 %27, label %28, label %50

28:                                               ; preds = %23
  %29 = load ptr, ptr %5, align 8
  %30 = getelementptr inbounds %struct.png_info_def, ptr %29, i32 0, i32 31
  %31 = load i32, ptr %30, align 8
  %32 = icmp ule i32 %31, 2147483647
  br i1 %32, label %33, label %50

33:                                               ; preds = %28
  %34 = load ptr, ptr %5, align 8
  %35 = getelementptr inbounds %struct.png_info_def, ptr %34, i32 0, i32 32
  %36 = load i32, ptr %35, align 4
  %37 = icmp ule i32 %36, 2147483647
  br i1 %37, label %38, label %50

38:                                               ; preds = %33
  %39 = load ptr, ptr %5, align 8
  %40 = getelementptr inbounds %struct.png_info_def, ptr %39, i32 0, i32 32
  %41 = load i32, ptr %40, align 4
  %42 = load ptr, ptr %5, align 8
  %43 = getelementptr inbounds %struct.png_info_def, ptr %42, i32 0, i32 31
  %44 = load i32, ptr %43, align 8
  %45 = call i32 @png_muldiv(ptr noundef %6, i32 noundef %41, i32 noundef 100000, i32 noundef %44)
  %46 = icmp ne i32 %45, 0
  br i1 %46, label %47, label %49

47:                                               ; preds = %38
  %48 = load i32, ptr %6, align 4
  store i32 %48, ptr %3, align 4
  br label %51

49:                                               ; preds = %38
  br label %50

50:                                               ; preds = %49, %33, %28, %23, %18, %12, %9, %2
  store i32 0, ptr %3, align 4
  br label %51

51:                                               ; preds = %50, %47
  %52 = load i32, ptr %3, align 4
  ret i32 %52
}